; Function Attrs: mustprogress uwtable
define dso_local void @_ZN15V3HierBlockPlan22topCommandArgsFileNameB5cxx11Eb(ptr dead_on_unwind noalias writable sret(%"class.std::__cxx11::basic_string") align 8 %0, i1 noundef zeroext %1) #3 align 2 personality ptr @__gxx_personality_v0 {
  %3 = alloca %"class.std::__cxx11::basic_string", align 8
  call void @_ZNSt7__cxx1112basic_stringIcSt11char_traitsIcESaIcEEC1ERKS4_(ptr noundef nonnull align 8 dereferenceable(32) %3, ptr noundef nonnull align 8 dereferenceable(32) getelementptr inbounds (%class.V3Global, ptr @v3Global, i64 0, i32 22, i32 150, i32 0, i32 0))
  invoke fastcc void @_ZL25V3HierCommandArgsFileNameRKNSt7__cxx1112basic_stringIcSt11char_traitsIcESaIcEEEb(ptr dead_on_unwind noalias writable align 8 %0, ptr noundef nonnull align 8 dereferenceable(32) %3, i1 noundef zeroext %1)
          to label %4 unwind label %5

4:                                                ; preds = %2
  call void @_ZNSt7__cxx1112basic_stringIcSt11char_traitsIcESaIcEED1Ev(ptr noundef nonnull align 8 dereferenceable(32) %3) #19
  ret void

5:                                                ; preds = %2
  %6 = landingpad { ptr, i32 }
          cleanup
  call void @_ZNSt7__cxx1112basic_stringIcSt11char_traitsIcESaIcEED1Ev(ptr noundef nonnull align 8 dereferenceable(32) %3) #19
  resume { ptr, i32 } %6
}